target datalayout = "e-m:e-p270:32:32-p271:32:32-p272:64:64-i64:64-i128:128-f80:128-n8:16:32:64-S128"
target triple = "x86_64-unknown-linux-gnu"

%struct.QEnumLookup = type { ptr, ptr, i32 }
%struct.QemuMutex = type { %union.pthread_mutex_t, i8 }
%union.pthread_mutex_t = type { %struct.__pthread_mutex_s }
%struct.__pthread_mutex_s = type { i32, i32, i32, i32, i32, i16, i16, %struct.__pthread_internal_list }
%struct.__pthread_internal_list = type { ptr, ptr }
%struct.QTailQLink = type { ptr, ptr }
%struct.MirrorBlockJob = type { %struct.BlockJob, ptr, ptr, ptr, ptr, ptr, ptr, ptr, i8, i32, i8, i32, i32, i32, i8, i8, i64, i64, i64, ptr, ptr, ptr, ptr, %struct.anon.14, i32, i64, ptr, i32, i64, %union.anon.15, i32, i8, i32, i32, i8, i32, i64, i8, i8 }
%struct.BlockJob = type { %struct.Job, i32, i64, %struct.RateLimit, ptr, %struct.Notifier, %struct.Notifier, %struct.Notifier, %struct.Notifier, %struct.Notifier, ptr }
%struct.Job = type { ptr, ptr, ptr, i8, i8, ptr, ptr, %struct.ProgressMeter, ptr, i32, i32, %struct.QEMUTimer, i32, i8, i8, i8, i8, i8, i8, i32, ptr, %struct.NotifierList, %struct.NotifierList, %struct.NotifierList, %struct.NotifierList, %struct.NotifierList, %struct.anon.11, ptr, %struct.anon.12 }
%struct.ProgressMeter = type { i64, i64, %struct.QemuMutex }
%struct.QEMUTimer = type { i64, ptr, ptr, ptr, ptr, i32, i32 }
%struct.NotifierList = type { %struct.anon.10 }
%struct.anon.10 = type { ptr }
%struct.anon.11 = type { ptr, ptr }
%struct.anon.12 = type { ptr, ptr }
%struct.RateLimit = type { %struct.QemuMutex, i64, i64, i64, i64, i64 }
%struct.Notifier = type { ptr, %struct.anon.13 }
%struct.anon.13 = type { ptr, ptr }
%struct.anon.14 = type { ptr, ptr }
%union.anon.15 = type { %struct.QTailQLink }
%struct.BlockJobChangeOptions = type { ptr, i32, %union.anon.23 }
%union.anon.23 = type { %struct.BlockJobChangeOptionsMirror }
%struct.BlockJobChangeOptionsMirror = type { i32 }

@.str = private unnamed_addr constant [22 x i8] c"qemu_in_main_thread()\00", align 1
@.str.1 = private unnamed_addr constant [23 x i8] c"../qemu/block/mirror.c\00", align 1
@__PRETTY_FUNCTION__.mirror_change = private unnamed_addr constant [66 x i8] c"void mirror_change(BlockJob *, BlockJobChangeOptions *, Error **)\00", align 1
@__func__.mirror_change = private unnamed_addr constant [14 x i8] c"mirror_change\00", align 1
@.str.67 = private unnamed_addr constant [44 x i8] c"Change to copy mode '%s' is not implemented\00", align 1
@MirrorCopyMode_lookup = external constant %struct.QEnumLookup, align 8
@.str.68 = private unnamed_addr constant [42 x i8] c"Expected current copy mode '%s', got '%s'\00", align 1

; Function Attrs: nounwind sspstrong uwtable
define internal void @mirror_change(ptr noundef %job, ptr noundef %opts, ptr noundef %errp) #0 {
entry:
  %job.addr = alloca ptr, align 8
  %opts.addr = alloca ptr, align 8
  %errp.addr = alloca ptr, align 8
  %s = alloca ptr, align 8
  %__mptr = alloca ptr, align 8
  %tmp = alloca ptr, align 8
  %change_opts = alloca ptr, align 8
  %current = alloca i32, align 4
  %tmp3 = alloca i32, align 4
  %atomic-temp = alloca i32, align 4
  %tmp18 = alloca i32, align 4
  %_old = alloca i32, align 4
  %.atomictmp = alloca i32, align 4
  %cmpxchg.bool = alloca i8, align 1
  %tmp21 = alloca i32, align 4
  store ptr %job, ptr %job.addr, align 8
  store ptr %opts, ptr %opts.addr, align 8
  store ptr %errp, ptr %errp.addr, align 8
  %0 = load ptr, ptr %job.addr, align 8
  store ptr %0, ptr %__mptr, align 8
  %1 = load ptr, ptr %__mptr, align 8
  %add.ptr = getelementptr i8, ptr %1, i64 0
  store ptr %add.ptr, ptr %tmp, align 8
  %2 = load ptr, ptr %tmp, align 8
  store ptr %2, ptr %s, align 8
  %3 = load ptr, ptr %opts.addr, align 8
  %u = getelementptr inbounds %struct.BlockJobChangeOptions, ptr %3, i32 0, i32 2
  store ptr %u, ptr %change_opts, align 8
  br label %do.body

do.body:                                          ; preds = %entry
  %call = call zeroext i1 @qemu_in_main_thread()
  br i1 %call, label %if.then, label %if.else

if.then:                                          ; preds = %do.body
  br label %if.end

if.else:                                          ; preds = %do.body
  call void @__assert_fail(ptr noundef @.str, ptr noundef @.str.1, i32 noundef 1285, ptr noundef @__PRETTY_FUNCTION__.mirror_change) #9
  unreachable

if.end:                                           ; preds = %if.then
  br label %do.end

do.end:                                           ; preds = %if.end
  br label %while.cond

while.cond:                                       ; preds = %do.end2, %do.end
  br i1 false, label %while.body, label %while.end

while.body:                                       ; preds = %while.cond
  br label %do.body1

do.body1:                                         ; preds = %while.body
  call void @g_assertion_message_expr(ptr noundef null, ptr noundef @.str.1, i32 noundef 1287, ptr noundef @__func__.mirror_change, ptr noundef null) #11
  unreachable

do.end2:                                          ; No predecessors!
  br label %while.cond

while.end:                                        ; preds = %while.cond
  %4 = load ptr, ptr %s, align 8
  %copy_mode = getelementptr inbounds %struct.MirrorBlockJob, ptr %4, i32 0, i32 11
  %5 = load atomic i32, ptr %copy_mode monotonic, align 4
  store i32 %5, ptr %atomic-temp, align 4
  %6 = load i32, ptr %atomic-temp, align 4
  store i32 %6, ptr %tmp3, align 4
  %7 = load i32, ptr %tmp3, align 4
  %8 = load ptr, ptr %change_opts, align 8
  %copy_mode4 = getelementptr inbounds %struct.BlockJobChangeOptionsMirror, ptr %8, i32 0, i32 0
  %9 = load i32, ptr %copy_mode4, align 4
  %cmp = icmp eq i32 %7, %9
  br i1 %cmp, label %if.then5, label %if.end6

if.then5:                                         ; preds = %while.end
  br label %if.end26

if.end6:                                          ; preds = %while.end
  %10 = load ptr, ptr %change_opts, align 8
  %copy_mode7 = getelementptr inbounds %struct.BlockJobChangeOptionsMirror, ptr %10, i32 0, i32 0
  %11 = load i32, ptr %copy_mode7, align 4
  %cmp8 = icmp ne i32 %11, 1
  br i1 %cmp8, label %if.then9, label %if.end12

if.then9:                                         ; preds = %if.end6
  %12 = load ptr, ptr %errp.addr, align 8
  %13 = load ptr, ptr %change_opts, align 8
  %copy_mode10 = getelementptr inbounds %struct.BlockJobChangeOptionsMirror, ptr %13, i32 0, i32 0
  %14 = load i32, ptr %copy_mode10, align 4
  %call11 = call ptr @qapi_enum_lookup(ptr noundef @MirrorCopyMode_lookup, i32 noundef %14)
  call void (ptr, ptr, i32, ptr, ptr, ...) @error_setg_internal(ptr noundef %12, ptr noundef @.str.1, i32 noundef 1293, ptr noundef @__func__.mirror_change, ptr noundef @.str.67, ptr noundef %call11)
  br label %if.end26

if.end12:                                         ; preds = %if.end6
  br label %while.cond13

while.cond13:                                     ; preds = %do.end16, %if.end12
  br i1 false, label %while.body14, label %while.end17

while.body14:                                     ; preds = %while.cond13
  br label %do.body15

do.body15:                                        ; preds = %while.body14
  call void @g_assertion_message_expr(ptr noundef null, ptr noundef @.str.1, i32 noundef 1298, ptr noundef @__func__.mirror_change, ptr noundef null) #11
  unreachable

do.end16:                                         ; No predecessors!
  br label %while.cond13

while.end17:                                      ; preds = %while.cond13
  store i32 0, ptr %_old, align 4
  %15 = load ptr, ptr %s, align 8
  %copy_mode19 = getelementptr inbounds %struct.MirrorBlockJob, ptr %15, i32 0, i32 11
  %16 = load ptr, ptr %change_opts, align 8
  %copy_mode20 = getelementptr inbounds %struct.BlockJobChangeOptionsMirror, ptr %16, i32 0, i32 0
  %17 = load i32, ptr %copy_mode20, align 4
  store i32 %17, ptr %.atomictmp, align 4
  %18 = load i32, ptr %_old, align 4
  %19 = load i32, ptr %.atomictmp, align 4
  %20 = cmpxchg ptr %copy_mode19, i32 %18, i32 %19 seq_cst seq_cst, align 4
  %21 = extractvalue { i32, i1 } %20, 0
  %22 = extractvalue { i32, i1 } %20, 1
  br i1 %22, label %cmpxchg.continue, label %cmpxchg.store_expected

cmpxchg.store_expected:                           ; preds = %while.end17
  store i32 %21, ptr %_old, align 4
  br label %cmpxchg.continue

cmpxchg.continue:                                 ; preds = %cmpxchg.store_expected, %while.end17
  %frombool = zext i1 %22 to i8
  store i8 %frombool, ptr %cmpxchg.bool, align 1
  %23 = load i32, ptr %_old, align 4
  store i32 %23, ptr %tmp21, align 4
  %24 = load i32, ptr %tmp21, align 4
  store i32 %24, ptr %tmp18, align 4
  %25 = load i32, ptr %tmp18, align 4
  store i32 %25, ptr %current, align 4
  %26 = load i32, ptr %current, align 4
  %cmp22 = icmp ne i32 %26, 0
  br i1 %cmp22, label %if.then23, label %if.end26

if.then23:                                        ; preds = %cmpxchg.continue
  %27 = load ptr, ptr %errp.addr, align 8
  %call24 = call ptr @qapi_enum_lookup(ptr noundef @MirrorCopyMode_lookup, i32 noundef 0)
  %28 = load i32, ptr %current, align 4
  %call25 = call ptr @qapi_enum_lookup(ptr noundef @MirrorCopyMode_lookup, i32 noundef %28)
  call void (ptr, ptr, i32, ptr, ptr, ...) @error_setg_internal(ptr noundef %27, ptr noundef @.str.1, i32 noundef 1302, ptr noundef @__func__.mirror_change, ptr noundef @.str.68, ptr noundef %call24, ptr noundef %call25)
  br label %if.end26

if.end26:                                         ; preds = %if.then23, %cmpxchg.continue, %if.then9, %if.then5
  ret void
}