; Function Attrs: nounwind sspstrong uwtable
define internal void @mirror_change(ptr noundef captures(none) %job, ptr noundef readonly captures(none) %opts, ptr noundef %errp) #0 {
entry:
  %call = tail call zeroext i1 @qemu_in_main_thread() #12
  br i1 %call, label %while.end, label %if.else

if.else:                                          ; preds = %entry
  tail call void @__assert_fail(ptr noundef nonnull @.str, ptr noundef nonnull @.str.1, i32 noundef 1285, ptr noundef nonnull @__PRETTY_FUNCTION__.mirror_change) #13
  unreachable

while.end:                                        ; preds = %entry
  %u = getelementptr inbounds nuw i8, ptr %opts, i64 12
  %copy_mode = getelementptr inbounds nuw i8, ptr %job, i64 588
  %0 = load atomic i32, ptr %copy_mode monotonic, align 4
  %1 = load i32, ptr %u, align 4
  %cmp = icmp eq i32 %0, %1
  br i1 %cmp, label %if.end26, label %if.end6

if.end6:                                          ; preds = %while.end
  %cmp8.not = icmp eq i32 %1, 1
  br i1 %cmp8.not, label %while.end17, label %if.then9

if.then9:                                         ; preds = %if.end6
  %call11 = tail call ptr @qapi_enum_lookup(ptr noundef nonnull @MirrorCopyMode_lookup, i32 noundef %1) #12
  tail call void (ptr, ptr, i32, ptr, ptr, ...) @error_setg_internal(ptr noundef %errp, ptr noundef nonnull @.str.1, i32 noundef 1293, ptr noundef nonnull @__func__.mirror_change, ptr noundef nonnull @.str.67, ptr noundef %call11) #12
  br label %if.end26

while.end17:                                      ; preds = %if.end6
  %2 = cmpxchg ptr %copy_mode, i32 0, i32 1 seq_cst seq_cst, align 4
  %cmp22.not = extractvalue { i32, i1 } %2, 1
  br i1 %cmp22.not, label %if.end26, label %if.then23

if.then23:                                        ; preds = %while.end17
  %3 = extractvalue { i32, i1 } %2, 0
  %call24 = tail call ptr @qapi_enum_lookup(ptr noundef nonnull @MirrorCopyMode_lookup, i32 noundef 0) #12
  %call25 = tail call ptr @qapi_enum_lookup(ptr noundef nonnull @MirrorCopyMode_lookup, i32 noundef %3) #12
  tail call void (ptr, ptr, i32, ptr, ptr, ...) @error_setg_internal(ptr noundef %errp, ptr noundef nonnull @.str.1, i32 noundef 1302, ptr noundef nonnull @__func__.mirror_change, ptr noundef nonnull @.str.68, ptr noundef %call24, ptr noundef %call25) #12
  br label %if.end26

if.end26:                                         ; preds = %while.end, %if.then23, %while.end17, %if.then9
  ret void
}